target datalayout = "e-m:e-p270:32:32-p271:32:32-p272:64:64-i64:64-i128:128-f80:128-n8:16:32:64-S128"
target triple = "x86_64-pc-linux-gnu"

%struct.If_Obj_t_ = type { i32, i32, i32, i32, i32, i32, ptr, ptr, ptr, float, float, float, %union.anon, ptr, %struct.If_Cut_t_ }
%union.anon = type { ptr }
%struct.If_Cut_t_ = type <{ float, float, float, float, i32, i32, i32, i64, [0 x i32] }>
%struct.If_Man_t_ = type { ptr, ptr, ptr, ptr, ptr, ptr, ptr, ptr, [5 x i32], i32, float, float, float, float, i32, float, i32, i32, [4 x ptr], ptr, i32, i32, i32, ptr, [3 x [32 x i32]], i32, i32, i32, ptr, ptr, ptr, ptr, ptr, ptr, ptr, i32, i32, i32, [16 x i32], i32, i32, i32, i32, ptr, ptr, ptr, ptr, ptr, i32, i32, [32 x i32], [32 x i32], i32, i32, i32, i32, ptr, [16 x ptr], [16 x ptr], [16 x ptr], [16 x ptr], [16 x ptr], [16 x ptr], [16 x ptr], ptr, ptr, ptr, ptr, [32 x i8], i32, i32, i32, [6 x i64], [2 x i32], [2 x i32], ptr, [15 x i32], ptr, ptr, ptr, [16 x i32], ptr, ptr, ptr, ptr, [2 x i32], [2 x i32], [2 x ptr], ptr }
%struct.Vec_Ptr_t_ = type { i32, i32, ptr }

@.str.28 = private unnamed_addr constant [24 x i8] c"Object %d is dangling.\0A\00", align 1
@.str.29 = private unnamed_addr constant [32 x i8] c"There are no dangling objects.\0A\00", align 1

; Function Attrs: inlinehint nounwind uwtable
define internal ptr @If_ObjFanin0(ptr noundef %0) #3 {
  %2 = alloca ptr, align 8
  store ptr %0, ptr %2, align 8, !tbaa !131
  %3 = load ptr, ptr %2, align 8, !tbaa !131
  %4 = getelementptr inbounds nuw %struct.If_Obj_t_, ptr %3, i32 0, i32 6
  %5 = load ptr, ptr %4, align 8, !tbaa !137
  ret ptr %5
}

; Function Attrs: inlinehint nounwind uwtable
define internal ptr @Vec_PtrEntry(ptr noundef %0, i32 noundef %1) #3 {
  %3 = alloca ptr, align 8
  %4 = alloca i32, align 4
  store ptr %0, ptr %3, align 8, !tbaa !151
  store i32 %1, ptr %4, align 4, !tbaa !42
  %5 = load ptr, ptr %3, align 8, !tbaa !151
  %6 = getelementptr inbounds nuw %struct.Vec_Ptr_t_, ptr %5, i32 0, i32 2
  %7 = load ptr, ptr %6, align 8, !tbaa !154
  %8 = load i32, ptr %4, align 4, !tbaa !42
  %9 = sext i32 %8 to i64
  %10 = getelementptr inbounds ptr, ptr %7, i64 %9
  %11 = load ptr, ptr %10, align 8, !tbaa !3
  ret ptr %11
}

; Function Attrs: inlinehint nounwind uwtable
define internal i32 @Vec_PtrSize(ptr noundef %0) #3 {
  %2 = alloca ptr, align 8
  store ptr %0, ptr %2, align 8, !tbaa !151
  %3 = load ptr, ptr %2, align 8, !tbaa !151
  %4 = getelementptr inbounds nuw %struct.Vec_Ptr_t_, ptr %3, i32 0, i32 1
  %5 = load i32, ptr %4, align 4, !tbaa !152
  ret i32 %5
}

; Function Attrs: nounwind uwtable
define void @If_ManCheckChoices(ptr noundef %0) #0 {
  %2 = alloca ptr, align 8
  %3 = alloca ptr, align 8
  %4 = alloca i32, align 4
  %5 = alloca i32, align 4
  store ptr %0, ptr %2, align 8, !tbaa !129
  call void @llvm.lifetime.start.p0(i64 8, ptr %3) #14
  call void @llvm.lifetime.start.p0(i64 4, ptr %4) #14
  call void @llvm.lifetime.start.p0(i64 4, ptr %5) #14
  store i32 0, ptr %5, align 4, !tbaa !42
  store i32 0, ptr %4, align 4, !tbaa !42
  br label %6

6:                                                ; preds = %26, %1
  %7 = load i32, ptr %4, align 4, !tbaa !42
  %8 = load ptr, ptr %2, align 8, !tbaa !129
  %9 = getelementptr inbounds nuw %struct.If_Man_t_, ptr %8, i32 0, i32 5
  %10 = load ptr, ptr %9, align 8, !tbaa !139
  %11 = call i32 @Vec_PtrSize(ptr noundef %10)
  %12 = icmp slt i32 %7, %11
  br i1 %12, label %13, label %19

13:                                               ; preds = %6
  %14 = load ptr, ptr %2, align 8, !tbaa !129
  %15 = getelementptr inbounds nuw %struct.If_Man_t_, ptr %14, i32 0, i32 5
  %16 = load ptr, ptr %15, align 8, !tbaa !139
  %17 = load i32, ptr %4, align 4, !tbaa !42
  %18 = call ptr @Vec_PtrEntry(ptr noundef %16, i32 noundef %17)
  store ptr %18, ptr %3, align 8, !tbaa !131
  br label %19

19:                                               ; preds = %13, %6
  %20 = phi i1 [ false, %6 ], [ true, %13 ]
  br i1 %20, label %21, label %29

21:                                               ; preds = %19
  %22 = load ptr, ptr %3, align 8, !tbaa !131
  %23 = load i32, ptr %22, align 8
  %24 = and i32 %23, -2049
  %25 = or i32 %24, 0
  store i32 %25, ptr %22, align 8
  br label %26

26:                                               ; preds = %21
  %27 = load i32, ptr %4, align 4, !tbaa !42
  %28 = add nsw i32 %27, 1
  store i32 %28, ptr %4, align 4, !tbaa !42
  br label %6, !llvm.loop !146

29:                                               ; preds = %19
  store i32 0, ptr %4, align 4, !tbaa !42
  br label %30

30:                                               ; preds = %49, %29
  %31 = load i32, ptr %4, align 4, !tbaa !42
  %32 = load ptr, ptr %2, align 8, !tbaa !129
  %33 = getelementptr inbounds nuw %struct.If_Man_t_, ptr %32, i32 0, i32 4
  %34 = load ptr, ptr %33, align 8, !tbaa !147
  %35 = call i32 @Vec_PtrSize(ptr noundef %34)
  %36 = icmp slt i32 %31, %35
  br i1 %36, label %37, label %43

37:                                               ; preds = %30
  %38 = load ptr, ptr %2, align 8, !tbaa !129
  %39 = getelementptr inbounds nuw %struct.If_Man_t_, ptr %38, i32 0, i32 4
  %40 = load ptr, ptr %39, align 8, !tbaa !147
  %41 = load i32, ptr %4, align 4, !tbaa !42
  %42 = call ptr @Vec_PtrEntry(ptr noundef %40, i32 noundef %41)
  store ptr %42, ptr %3, align 8, !tbaa !131
  br label %43

43:                                               ; preds = %37, %30
  %44 = phi i1 [ false, %30 ], [ true, %37 ]
  br i1 %44, label %45, label %52

45:                                               ; preds = %43
  %46 = load ptr, ptr %2, align 8, !tbaa !129
  %47 = load ptr, ptr %3, align 8, !tbaa !131
  %48 = call ptr @If_ObjFanin0(ptr noundef %47)
  call void @If_ManCheckChoices_rec(ptr noundef %46, ptr noundef %48)
  br label %49

49:                                               ; preds = %45
  %50 = load i32, ptr %4, align 4, !tbaa !42
  %51 = add nsw i32 %50, 1
  store i32 %51, ptr %4, align 4, !tbaa !42
  br label %30, !llvm.loop !148

52:                                               ; preds = %43
  store i32 0, ptr %4, align 4, !tbaa !42
  br label %53

53:                                               ; preds = %85, %52
  %54 = load i32, ptr %4, align 4, !tbaa !42
  %55 = load ptr, ptr %2, align 8, !tbaa !129
  %56 = getelementptr inbounds nuw %struct.If_Man_t_, ptr %55, i32 0, i32 5
  %57 = load ptr, ptr %56, align 8, !tbaa !139
  %58 = call i32 @Vec_PtrSize(ptr noundef %57)
  %59 = icmp slt i32 %54, %58
  br i1 %59, label %60, label %66

60:                                               ; preds = %53
  %61 = load ptr, ptr %2, align 8, !tbaa !129
  %62 = getelementptr inbounds nuw %struct.If_Man_t_, ptr %61, i32 0, i32 5
  %63 = load ptr, ptr %62, align 8, !tbaa !139
  %64 = load i32, ptr %4, align 4, !tbaa !42
  %65 = call ptr @Vec_PtrEntry(ptr noundef %63, i32 noundef %64)
  store ptr %65, ptr %3, align 8, !tbaa !131
  br label %66

66:                                               ; preds = %60, %53
  %67 = phi i1 [ false, %53 ], [ true, %60 ]
  br i1 %67, label %68, label %88

68:                                               ; preds = %66
  %69 = load ptr, ptr %3, align 8, !tbaa !131
  %70 = load i32, ptr %69, align 8
  %71 = and i32 %70, 15
  %72 = icmp ne i32 %71, 4
  br i1 %72, label %73, label %74

73:                                               ; preds = %68
  br label %84

74:                                               ; preds = %68
  %75 = load ptr, ptr %3, align 8, !tbaa !131
  %76 = load i32, ptr %75, align 8
  %77 = lshr i32 %76, 11
  %78 = and i32 %77, 1
  %79 = icmp ne i32 %78, 0
  br i1 %79, label %83, label %80

80:                                               ; preds = %74
  %81 = load i32, ptr %4, align 4, !tbaa !42
  %82 = call i32 (ptr, ...) @printf(ptr noundef @.str.28, i32 noundef %81)
  store i32 1, ptr %5, align 4, !tbaa !42
  br label %83

83:                                               ; preds = %80, %74
  br label %84

84:                                               ; preds = %83, %73
  br label %85

85:                                               ; preds = %84
  %86 = load i32, ptr %4, align 4, !tbaa !42
  %87 = add nsw i32 %86, 1
  store i32 %87, ptr %4, align 4, !tbaa !42
  br label %53, !llvm.loop !149

88:                                               ; preds = %66
  %89 = load i32, ptr %5, align 4, !tbaa !42
  %90 = icmp ne i32 %89, 0
  br i1 %90, label %93, label %91

91:                                               ; preds = %88
  %92 = call i32 (ptr, ...) @printf(ptr noundef @.str.29)
  br label %93

93:                                               ; preds = %91, %88
  store i32 0, ptr %4, align 4, !tbaa !42
  br label %94

94:                                               ; preds = %114, %93
  %95 = load i32, ptr %4, align 4, !tbaa !42
  %96 = load ptr, ptr %2, align 8, !tbaa !129
  %97 = getelementptr inbounds nuw %struct.If_Man_t_, ptr %96, i32 0, i32 5
  %98 = load ptr, ptr %97, align 8, !tbaa !139
  %99 = call i32 @Vec_PtrSize(ptr noundef %98)
  %100 = icmp slt i32 %95, %99
  br i1 %100, label %101, label %107

101:                                              ; preds = %94
  %102 = load ptr, ptr %2, align 8, !tbaa !129
  %103 = getelementptr inbounds nuw %struct.If_Man_t_, ptr %102, i32 0, i32 5
  %104 = load ptr, ptr %103, align 8, !tbaa !139
  %105 = load i32, ptr %4, align 4, !tbaa !42
  %106 = call ptr @Vec_PtrEntry(ptr noundef %104, i32 noundef %105)
  store ptr %106, ptr %3, align 8, !tbaa !131
  br label %107

107:                                              ; preds = %101, %94
  %108 = phi i1 [ false, %94 ], [ true, %101 ]
  br i1 %108, label %109, label %117

109:                                              ; preds = %107
  %110 = load ptr, ptr %3, align 8, !tbaa !131
  %111 = load i32, ptr %110, align 8
  %112 = and i32 %111, -2049
  %113 = or i32 %112, 0
  store i32 %113, ptr %110, align 8
  br label %114

114:                                              ; preds = %109
  %115 = load i32, ptr %4, align 4, !tbaa !42
  %116 = add nsw i32 %115, 1
  store i32 %116, ptr %4, align 4, !tbaa !42
  br label %94, !llvm.loop !150

117:                                              ; preds = %107
  call void @llvm.lifetime.end.p0(i64 4, ptr %5) #14
  call void @llvm.lifetime.end.p0(i64 4, ptr %4) #14
  call void @llvm.lifetime.end.p0(i64 8, ptr %3) #14
  ret void
}