; Function Attrs: nofree nounwind uwtable
define void @If_ManCheckChoices(ptr noundef %0) local_unnamed_addr #13 {
  %2 = getelementptr inbounds nuw i8, ptr %0, i64 40
  %3 = load ptr, ptr %2, align 8, !tbaa !117
  %4 = getelementptr i8, ptr %3, i64 4
  %.val3745 = load i32, ptr %4, align 4, !tbaa !126
  %5 = icmp sgt i32 %.val3745, 0
  br i1 %5, label %.lr.ph, label %.critedge.preheader

.critedge.preheader:                              ; preds = %.lr.ph, %1
  %6 = phi ptr [ %3, %1 ], [ %17, %.lr.ph ]
  %7 = getelementptr inbounds nuw i8, ptr %0, i64 32
  %8 = load ptr, ptr %7, align 8, !tbaa !128
  %9 = getelementptr i8, ptr %8, i64 4
  %.val3847 = load i32, ptr %9, align 4, !tbaa !126
  %10 = icmp sgt i32 %.val3847, 0
  br i1 %10, label %.critedge, label %.critedge2.preheader

.lr.ph:                                           ; preds = %1, %.lr.ph
  %indvars.iv = phi i64 [ %indvars.iv.next, %.lr.ph ], [ 0, %1 ]
  %11 = phi ptr [ %17, %.lr.ph ], [ %3, %1 ]
  %12 = getelementptr i8, ptr %11, i64 8
  %.val41 = load ptr, ptr %12, align 8, !tbaa !129
  %13 = getelementptr inbounds nuw ptr, ptr %.val41, i64 %indvars.iv
  %14 = load ptr, ptr %13, align 8, !tbaa !130
  %15 = load i32, ptr %14, align 8
  %16 = and i32 %15, -2049
  store i32 %16, ptr %14, align 8
  %indvars.iv.next = add nuw nsw i64 %indvars.iv, 1
  %17 = load ptr, ptr %2, align 8, !tbaa !117
  %18 = getelementptr i8, ptr %17, i64 4
  %.val37 = load i32, ptr %18, align 4, !tbaa !126
  %19 = sext i32 %.val37 to i64
  %20 = icmp slt i64 %indvars.iv.next, %19
  br i1 %20, label %.lr.ph, label %.critedge.preheader, !llvm.loop !131

.critedge2.preheader.loopexit:                    ; preds = %.critedge
  %.pre = load ptr, ptr %2, align 8, !tbaa !117
  br label %.critedge2.preheader

.critedge2.preheader:                             ; preds = %.critedge2.preheader.loopexit, %.critedge.preheader
  %21 = phi ptr [ %.pre, %.critedge2.preheader.loopexit ], [ %6, %.critedge.preheader ]
  %22 = getelementptr i8, ptr %21, i64 4
  %.val3950 = load i32, ptr %22, align 4, !tbaa !126
  %23 = icmp sgt i32 %.val3950, 0
  br i1 %23, label %.lr.ph53.outer, label %.critedge4.thread

.lr.ph53.outer:                                   ; preds = %.critedge2.preheader, %.critedge2.thread
  %.ph = phi ptr [ %.pre68, %.critedge2.thread ], [ %21, %.critedge2.preheader ]
  %indvars.iv62.ph = phi i64 [ %indvars.iv.next6372, %.critedge2.thread ], [ 0, %.critedge2.preheader ]
  %24 = phi i1 [ false, %.critedge2.thread ], [ true, %.critedge2.preheader ]
  %25 = getelementptr i8, ptr %.ph, i64 8
  %.val43 = load ptr, ptr %25, align 8, !tbaa !129
  %26 = getelementptr i8, ptr %.ph, i64 4
  br label %.lr.ph53

.critedge:                                        ; preds = %.critedge.preheader, %.critedge
  %indvars.iv59 = phi i64 [ %indvars.iv.next60, %.critedge ], [ 0, %.critedge.preheader ]
  %27 = phi ptr [ %32, %.critedge ], [ %8, %.critedge.preheader ]
  %28 = getelementptr i8, ptr %27, i64 8
  %.val42 = load ptr, ptr %28, align 8, !tbaa !129
  %29 = getelementptr inbounds nuw ptr, ptr %.val42, i64 %indvars.iv59
  %30 = load ptr, ptr %29, align 8, !tbaa !130
  %31 = getelementptr i8, ptr %30, i64 24
  %.val = load ptr, ptr %31, align 8, !tbaa !110
  tail call void @If_ManCheckChoices_rec(ptr noundef nonnull %0, ptr noundef %.val)
  %indvars.iv.next60 = add nuw nsw i64 %indvars.iv59, 1
  %32 = load ptr, ptr %7, align 8, !tbaa !128
  %33 = getelementptr i8, ptr %32, i64 4
  %.val38 = load i32, ptr %33, align 4, !tbaa !126
  %34 = sext i32 %.val38 to i64
  %35 = icmp slt i64 %indvars.iv.next60, %34
  br i1 %35, label %.critedge, label %.critedge2.preheader.loopexit, !llvm.loop !132

.lr.ph53:                                         ; preds = %.lr.ph53.outer, %.critedge2
  %indvars.iv62 = phi i64 [ %indvars.iv.next63, %.critedge2 ], [ %indvars.iv62.ph, %.lr.ph53.outer ]
  %36 = getelementptr inbounds nuw ptr, ptr %.val43, i64 %indvars.iv62
  %37 = load ptr, ptr %36, align 8, !tbaa !130
  %38 = load i32, ptr %37, align 8
  %39 = and i32 %38, 2063
  %or.cond = icmp eq i32 %39, 4
  br i1 %or.cond, label %.critedge2.thread, label %.critedge2

.critedge2:                                       ; preds = %.lr.ph53
  %indvars.iv.next63 = add nuw nsw i64 %indvars.iv62, 1
  %.val39 = load i32, ptr %26, align 4, !tbaa !126
  %40 = sext i32 %.val39 to i64
  %41 = icmp slt i64 %indvars.iv.next63, %40
  br i1 %41, label %.lr.ph53, label %.critedge4, !llvm.loop !133

.critedge2.thread:                                ; preds = %.lr.ph53
  %42 = trunc nuw nsw i64 %indvars.iv62 to i32
  %43 = tail call i32 (ptr, ...) @printf(ptr noundef nonnull dereferenceable(1) @.str.28, i32 noundef %42)
  %.pre68 = load ptr, ptr %2, align 8, !tbaa !117
  %indvars.iv.next6372 = add nuw nsw i64 %indvars.iv62, 1
  %44 = getelementptr i8, ptr %.pre68, i64 4
  %.val3973 = load i32, ptr %44, align 4, !tbaa !126
  %45 = sext i32 %.val3973 to i64
  %46 = icmp slt i64 %indvars.iv.next6372, %45
  br i1 %46, label %.lr.ph53.outer, label %.critedge4.thread75, !llvm.loop !133

.critedge4:                                       ; preds = %.critedge2
  br i1 %24, label %.critedge4.thread, label %.critedge4.thread75

.critedge4.thread:                                ; preds = %.critedge2.preheader, %.critedge4
  %puts = tail call i32 @puts(ptr nonnull dereferenceable(1) @str)
  %.pre69 = load ptr, ptr %2, align 8, !tbaa !117
  br label %.critedge4.thread75

.critedge4.thread75:                              ; preds = %.critedge2.thread, %.critedge4.thread, %.critedge4
  %47 = phi ptr [ %.pre69, %.critedge4.thread ], [ %.ph, %.critedge4 ], [ %.pre68, %.critedge2.thread ]
  %48 = getelementptr i8, ptr %47, i64 4
  %.val4054 = load i32, ptr %48, align 4, !tbaa !126
  %49 = icmp sgt i32 %.val4054, 0
  br i1 %49, label %.lr.ph56, label %.critedge6

.lr.ph56:                                         ; preds = %.critedge4.thread75, %.lr.ph56
  %indvars.iv65 = phi i64 [ %indvars.iv.next66, %.lr.ph56 ], [ 0, %.critedge4.thread75 ]
  %50 = phi ptr [ %56, %.lr.ph56 ], [ %47, %.critedge4.thread75 ]
  %51 = getelementptr i8, ptr %50, i64 8
  %.val44 = load ptr, ptr %51, align 8, !tbaa !129
  %52 = getelementptr inbounds nuw ptr, ptr %.val44, i64 %indvars.iv65
  %53 = load ptr, ptr %52, align 8, !tbaa !130
  %54 = load i32, ptr %53, align 8
  %55 = and i32 %54, -2049
  store i32 %55, ptr %53, align 8
  %indvars.iv.next66 = add nuw nsw i64 %indvars.iv65, 1
  %56 = load ptr, ptr %2, align 8, !tbaa !117
  %57 = getelementptr i8, ptr %56, i64 4
  %.val40 = load i32, ptr %57, align 4, !tbaa !126
  %58 = sext i32 %.val40 to i64
  %59 = icmp slt i64 %indvars.iv.next66, %58
  br i1 %59, label %.lr.ph56, label %.critedge6, !llvm.loop !134

.critedge6:                                       ; preds = %.lr.ph56, %.critedge4.thread75
  ret void
}